; Function Attrs: nofree norecurse nosync nounwind memory(read, inaccessiblemem: none) uwtable
define dso_local noundef zeroext i1 @type_is_valid_for_vector(ptr nocapture noundef readonly %0) local_unnamed_addr #5 {
  br label %2

2:                                                ; preds = %.backedge, %1
  %.0 = phi ptr [ %0, %1 ], [ %.0.be, %.backedge ]
  %3 = load i32, ptr %.0, align 8
  switch i32 %3, label %.loopexit [
    i32 3, label %.loopexit.loopexit
    i32 4, label %.loopexit.loopexit
    i32 5, label %.loopexit.loopexit
    i32 6, label %.loopexit.loopexit
    i32 7, label %.loopexit.loopexit
    i32 8, label %.loopexit.loopexit
    i32 9, label %.loopexit.loopexit
    i32 10, label %.loopexit.loopexit
    i32 11, label %.loopexit.loopexit
    i32 12, label %.loopexit.loopexit
    i32 14, label %.loopexit.loopexit
    i32 13, label %.loopexit.loopexit
    i32 15, label %.loopexit.loopexit
    i32 16, label %.loopexit.loopexit
    i32 17, label %.loopexit.loopexit
    i32 2, label %.loopexit.loopexit
    i32 23, label %.loopexit.loopexit
    i32 24, label %.loopexit.loopexit
    i32 22, label %.loopexit.loopexit
    i32 30, label %.loopexit.loopexit
    i32 21, label %.loopexit.loopexit
    i32 32, label %4
    i32 31, label %.backedge
  ]

4:                                                ; preds = %2
  %5 = getelementptr inbounds i8, ptr %.0, i64 56
  %6 = load ptr, ptr %5, align 8
  %7 = getelementptr inbounds i8, ptr %6, i64 96
  %8 = load ptr, ptr %7, align 8
  br label %.backedge

.backedge:                                        ; preds = %2, %4
  %.0.pn = phi ptr [ %8, %4 ], [ %.0, %2 ]
  %.0.be.in = getelementptr inbounds i8, ptr %.0.pn, i64 8
  %.0.be = load ptr, ptr %.0.be.in, align 8
  br label %2

.loopexit.loopexit:                               ; preds = %2, %2, %2, %2, %2, %2, %2, %2, %2, %2, %2, %2, %2, %2, %2, %2, %2, %2, %2, %2, %2
  br label %.loopexit

.loopexit:                                        ; preds = %2, %.loopexit.loopexit
  %.04 = phi i1 [ true, %.loopexit.loopexit ], [ false, %2 ]
  ret i1 %.04
}